target datalayout = "e-m:e-p270:32:32-p271:32:32-p272:64:64-i64:64-i128:128-f80:128-n8:16:32:64-S128"
target triple = "x86_64-pc-linux-gnu"

%struct.X509_crl_st = type { %struct.X509_crl_info_st, %struct.X509_algor_st, %struct.asn1_string_st, %struct.CRYPTO_REF_COUNT, i32, ptr, ptr, i32, i32, ptr, ptr, ptr, [20 x i8], ptr, ptr, ptr, ptr, ptr }
%struct.X509_crl_info_st = type { ptr, %struct.X509_algor_st, ptr, ptr, ptr, ptr, ptr, %struct.ASN1_ENCODING_st }
%struct.ASN1_ENCODING_st = type { ptr, i64, i32 }
%struct.X509_algor_st = type { ptr, ptr }
%struct.asn1_string_st = type { i32, i32, ptr, i64 }
%struct.CRYPTO_REF_COUNT = type { i32 }

; Function Attrs: nounwind uwtable
define i32 @X509_CRL_set1_nextUpdate(ptr noundef %0, ptr noundef %1) #0 {
  %3 = alloca i32, align 4
  %4 = alloca ptr, align 8
  %5 = alloca ptr, align 8
  store ptr %0, ptr %4, align 8, !tbaa !3
  store ptr %1, ptr %5, align 8, !tbaa !32
  %6 = load ptr, ptr %4, align 8, !tbaa !3
  %7 = icmp eq ptr %6, null
  br i1 %7, label %8, label %9

8:                                                ; preds = %2
  store i32 0, ptr %3, align 4
  br label %19

9:                                                ; preds = %2
  %10 = load ptr, ptr %4, align 8, !tbaa !3
  %11 = getelementptr inbounds nuw %struct.X509_crl_st, ptr %10, i32 0, i32 0
  %12 = getelementptr inbounds nuw %struct.X509_crl_info_st, ptr %11, i32 0, i32 7
  %13 = getelementptr inbounds nuw %struct.ASN1_ENCODING_st, ptr %12, i32 0, i32 2
  %14 = load ptr, ptr %4, align 8, !tbaa !3
  %15 = getelementptr inbounds nuw %struct.X509_crl_st, ptr %14, i32 0, i32 0
  %16 = getelementptr inbounds nuw %struct.X509_crl_info_st, ptr %15, i32 0, i32 4
  %17 = load ptr, ptr %5, align 8, !tbaa !32
  %18 = call i32 @ossl_x509_set1_time(ptr noundef %13, ptr noundef %16, ptr noundef %17)
  store i32 %18, ptr %3, align 4
  br label %19

19:                                               ; preds = %9, %8
  %20 = load i32, ptr %3, align 4
  ret i32 %20
}