; Function Attrs: nounwind uwtable
define i32 @X509_CRL_set1_nextUpdate(ptr noundef %0, ptr noundef %1) local_unnamed_addr #0 {
  %3 = icmp eq ptr %0, null
  br i1 %3, label %8, label %4

4:                                                ; preds = %2
  %5 = getelementptr inbounds nuw i8, ptr %0, i64 80
  %6 = getelementptr inbounds nuw i8, ptr %0, i64 40
  %7 = tail call i32 @ossl_x509_set1_time(ptr noundef nonnull %5, ptr noundef nonnull %6, ptr noundef %1) #6
  br label %8

8:                                                ; preds = %2, %4
  %.0 = phi i32 [ %7, %4 ], [ 0, %2 ]
  ret i32 %.0
}